target datalayout = "e-m:e-p270:32:32-p271:32:32-p272:64:64-i64:64-i128:128-f80:128-n8:16:32:64-S128"
target triple = "x86_64-pc-linux-gnu"

%class.OopHandle = type { ptr }
%class.ciEnv = type <{ ptr, %class.Arena, ptr, ptr, ptr, ptr, %class.CHeapStringHolder, i8, [3 x i8], i32, i8, [3 x i8], i32, ptr, ptr, ptr, ptr, i32, [4 x i8], i64, i8, i8, i8, i8, i8, i8, i8, i8, ptr, ptr, ptr, ptr, ptr, ptr, ptr, ptr, ptr, [1025 x i8], [7 x i8] }>
%class.Arena = type { i8, i8, i64, ptr, ptr, ptr, ptr }
%class.CHeapStringHolder = type { ptr }
%class.CompilerThread = type { %class.JavaThread, ptr, ptr, ptr, ptr, ptr, ptr, i8, ptr, %class.TimeStamp, ptr }
%class.JavaThread = type { %class.Thread, i8, %class.OopHandle, %class.OopHandle, %class.OopHandle, %class.OopHandle, %class.JavaFrameAnchor, ptr, %struct.JNIEnv_, ptr, ptr, ptr, ptr, ptr, ptr, ptr, ptr, %class.MemRegion, ptr, i8, ptr, ptr, ptr, i32, i32, %"struct.SafepointMechanism::ThreadData", ptr, ptr, i32, i32, i8, i8, i8, i8, i8, i8, i8, i32, i8, i32, i8, i8, i64, %union.anon, ptr, ptr, i64, i64, ptr, ptr, %class.StackOverflow, ptr, ptr, ptr, i32, i32, ptr, i32, i32, i32, ptr, ptr, i32, i64, i64, %class.StackWatermarks, %class.HandshakeState, ptr, i32, ptr, i32, i32, ptr, %class.Parker, ptr, ptr, %class.LockStack }
%class.Thread = type { %class.ThreadShadow.base, i64, [43 x i64], ptr, ptr, i32, ptr, i64, i64, %class.ThreadLocalAllocBuffer, i64, %class.ThreadHeapSampler, %class.ThreadStatisticalInfo, %class.JfrThreadLocal, ptr, ptr, ptr, ptr, ptr, ptr, i64, i32, i32, ptr, i32, i32, i32, i32, i8, ptr }
%class.ThreadShadow.base = type <{ ptr, ptr, ptr, i32 }>
%class.ThreadLocalAllocBuffer = type <{ ptr, ptr, ptr, ptr, ptr, i64, i64, i64, i64, i32, i32, i32, i32, i64, %class.AdaptiveWeightedAverage, [4 x i8] }>
%class.AdaptiveWeightedAverage = type { float, i32, i32, i8, float }
%class.ThreadHeapSampler = type { i64 }
%class.ThreadStatisticalInfo = type { i64, i64 }
%class.JfrThreadLocal = type <{ ptr, ptr, ptr, ptr, ptr, ptr, ptr, ptr, ptr, ptr, %class.RefCountHandle, i64, i64, i64, i64, i64, i64, i64, i64, i64, i64, i64, i32, i32, i32, i16, i8, i8, i8, i8, i8, [5 x i8] }>
%class.RefCountHandle = type { ptr }
%class.JavaFrameAnchor = type { ptr, ptr, ptr }
%struct.JNIEnv_ = type { ptr }
%class.MemRegion = type { ptr, i64 }
%"struct.SafepointMechanism::ThreadData" = type { i64, i64 }
%union.anon = type { ptr }
%class.StackOverflow = type { i32, ptr, ptr, ptr, ptr, ptr, ptr }
%class.StackWatermarks = type { ptr }
%class.HandshakeState = type <{ ptr, %class.FilterQueue, %class.Monitor, ptr, i8, i8, i8, [5 x i8] }>
%class.FilterQueue = type { ptr }
%class.Monitor = type { %class.Mutex }
%class.Mutex = type { ptr, %class.PlatformMonitor, ptr }
%class.PlatformMonitor = type { %class.PlatformMutex, %union.pthread_cond_t }
%class.PlatformMutex = type { %union.pthread_mutex_t }
%union.pthread_mutex_t = type { %struct.__pthread_mutex_s }
%struct.__pthread_mutex_s = type { i32, i32, i32, i32, i32, i16, i16, %struct.__pthread_internal_list }
%struct.__pthread_internal_list = type { ptr, ptr }
%union.pthread_cond_t = type { %struct.__pthread_cond_s }
%struct.__pthread_cond_s = type { %union.__atomic_wide_counter, %union.__atomic_wide_counter, [2 x i32], [2 x i32], i32, i32, [2 x i32] }
%union.__atomic_wide_counter = type { i64 }
%class.Parker = type { %class.PlatformParker }
%class.PlatformParker = type { i32, i32, [1 x %union.pthread_mutex_t], [2 x %union.pthread_cond_t] }
%class.LockStack = type { i32, i64, [8 x ptr] }
%class.TimeStamp = type { i64 }
%class.CompileTask = type { ptr, i32, ptr, ptr, i32, i8, i8, i8, i32, i32, i32, ptr, i8, ptr, i32, i32, ptr, ptr, i8, i64, i64, ptr, ptr, i32, i32, ptr, i8, i64 }

@.str.17 = private unnamed_addr constant [22 x i8] c"method_not_compilable\00", align 1
@.str.18 = private unnamed_addr constant [41 x i8] c"method_not_compilable_at_tier level='%d'\00", align 1
@.str.19 = private unnamed_addr constant [14 x i8] c"out of memory\00", align 1
@_ZN6Thread12_thr_currentE = external thread_local global ptr, align 8

; Function Attrs: mustprogress nounwind uwtable
define linkonce_odr hidden noundef ptr @_ZN6Thread15current_or_nullEv() #1 comdat align 2 {
  %1 = call align 8 ptr @llvm.threadlocal.address.p0(ptr align 8 @_ZN6Thread12_thr_currentE)
  %2 = load ptr, ptr %1, align 8
  ret ptr %2
}

; Function Attrs: mustprogress nounwind uwtable
define linkonce_odr hidden noundef ptr @_ZN10JavaThread4castEP6Thread(ptr noundef %0) #1 comdat align 2 {
  %2 = alloca ptr, align 8
  store ptr %0, ptr %2, align 8
  %3 = load ptr, ptr %2, align 8
  ret ptr %3
}

; Function Attrs: mustprogress nounwind uwtable
define linkonce_odr hidden noundef ptr @_ZN6Thread7currentEv() #1 comdat align 2 {
  %1 = alloca ptr, align 8
  %2 = call noundef ptr @_ZN6Thread15current_or_nullEv()
  store ptr %2, ptr %1, align 8
  %3 = load ptr, ptr %1, align 8
  ret ptr %3
}

; Function Attrs: mustprogress nounwind uwtable
define linkonce_odr hidden noundef ptr @_ZN14CompilerThread4castEP6Thread(ptr noundef %0) #1 comdat align 2 {
  %2 = alloca ptr, align 8
  store ptr %0, ptr %2, align 8
  %3 = load ptr, ptr %2, align 8
  ret ptr %3
}

; Function Attrs: mustprogress nounwind uwtable
define linkonce_odr hidden noundef ptr @_ZN10JavaThread7currentEv() #1 comdat align 2 {
  %1 = call noundef ptr @_ZN6Thread7currentEv()
  %2 = call noundef ptr @_ZN10JavaThread4castEP6Thread(ptr noundef %1)
  ret ptr %2
}

; Function Attrs: mustprogress nounwind uwtable
define linkonce_odr hidden noundef ptr @_ZNK17CHeapStringHolder3getEv(ptr noundef nonnull align 8 dereferenceable(8) %0) #1 comdat align 2 {
  %2 = alloca ptr, align 8
  store ptr %0, ptr %2, align 8
  %3 = load ptr, ptr %2, align 8
  %4 = getelementptr inbounds %class.CHeapStringHolder, ptr %3, i32 0, i32 0
  %5 = load ptr, ptr %4, align 8
  ret ptr %5
}

; Function Attrs: mustprogress nounwind uwtable
define linkonce_odr hidden noundef ptr @_ZN14CompilerThread3envEv(ptr noundef nonnull align 8 dereferenceable(1880) %0) #1 comdat align 2 {
  %2 = alloca ptr, align 8
  store ptr %0, ptr %2, align 8
  %3 = load ptr, ptr %2, align 8
  %4 = getelementptr inbounds %class.CompilerThread, ptr %3, i32 0, i32 2
  %5 = load ptr, ptr %4, align 8
  ret ptr %5
}

; Function Attrs: mustprogress nounwind uwtable
define linkonce_odr hidden noundef ptr @_ZN14CompilerThread7currentEv() #1 comdat align 2 {
  %1 = call noundef ptr @_ZN10JavaThread7currentEv()
  %2 = call noundef ptr @_ZN14CompilerThread4castEP6Thread(ptr noundef %1)
  ret ptr %2
}

; Function Attrs: mustprogress nounwind uwtable
define hidden void @_ZN5ciEnv14record_failureEPKc(ptr noundef nonnull align 8 dereferenceable(1265) %0, ptr noundef %1) #1 align 2 {
  %3 = alloca ptr, align 8
  %4 = alloca ptr, align 8
  store ptr %0, ptr %3, align 8
  store ptr %1, ptr %4, align 8
  %5 = load ptr, ptr %3, align 8
  %6 = getelementptr inbounds %class.ciEnv, ptr %5, i32 0, i32 6
  %7 = call noundef ptr @_ZNK17CHeapStringHolder3getEv(ptr noundef nonnull align 8 dereferenceable(8) %6)
  %8 = icmp eq ptr %7, null
  br i1 %8, label %9, label %12

9:                                                ; preds = %2
  %10 = getelementptr inbounds %class.ciEnv, ptr %5, i32 0, i32 6
  %11 = load ptr, ptr %4, align 8
  call void @_ZN17CHeapStringHolder3setEPKc(ptr noundef nonnull align 8 dereferenceable(8) %10, ptr noundef %11)
  br label %12

12:                                               ; preds = %9, %2
  ret void
}

; Function Attrs: mustprogress nounwind uwtable
define linkonce_odr hidden noundef i32 @_ZN11CompileTask10comp_levelEv(ptr noundef nonnull align 8 dereferenceable(176) %0) #1 comdat align 2 {
  %2 = alloca ptr, align 8
  store ptr %0, ptr %2, align 8
  %3 = load ptr, ptr %2, align 8
  %4 = getelementptr inbounds %class.CompileTask, ptr %3, i32 0, i32 14
  %5 = load i32, ptr %4, align 8
  ret i32 %5
}

; Function Attrs: mustprogress nounwind uwtable
define linkonce_odr hidden noundef ptr @_ZNK5ciEnv4taskEv(ptr noundef nonnull align 8 dereferenceable(1265) %0) #1 comdat align 2 {
  %2 = alloca ptr, align 8
  store ptr %0, ptr %2, align 8
  %3 = load ptr, ptr %2, align 8
  %4 = getelementptr inbounds %class.ciEnv, ptr %3, i32 0, i32 13
  %5 = load ptr, ptr %4, align 8
  ret ptr %5
}

; Function Attrs: mustprogress nounwind uwtable
define linkonce_odr hidden noundef ptr @_ZN5ciEnv7currentEv() #1 comdat align 2 {
  %1 = call noundef ptr @_ZN14CompilerThread7currentEv()
  %2 = call noundef ptr @_ZN14CompilerThread3envEv(ptr noundef nonnull align 8 dereferenceable(1880) %1)
  ret ptr %2
}

; Function Attrs: mustprogress nounwind uwtable
define linkonce_odr hidden noundef ptr @_ZN5ciEnv3logEv(ptr noundef nonnull align 8 dereferenceable(1265) %0) #1 comdat align 2 {
  %2 = alloca ptr, align 8
  store ptr %0, ptr %2, align 8
  %3 = load ptr, ptr %2, align 8
  %4 = getelementptr inbounds %class.ciEnv, ptr %3, i32 0, i32 14
  %5 = load ptr, ptr %4, align 8
  ret ptr %5
}

; Function Attrs: mustprogress nounwind uwtable
define hidden void @_ZN5ciEnv28record_method_not_compilableEPKcb(ptr noundef nonnull align 8 dereferenceable(1265) %0, ptr noundef %1, i1 noundef zeroext %2) #1 align 2 {
  %4 = alloca ptr, align 8
  %5 = alloca ptr, align 8
  %6 = alloca i8, align 1
  %7 = alloca i32, align 4
  store ptr %0, ptr %4, align 8
  store ptr %1, ptr %5, align 8
  %8 = zext i1 %2 to i8
  store i8 %8, ptr %6, align 1
  %9 = load ptr, ptr %4, align 8
  %10 = load i8, ptr %6, align 1
  %11 = trunc i8 %10 to i1
  %12 = select i1 %11, i32 2, i32 1
  store i32 %12, ptr %7, align 4
  %13 = load i32, ptr %7, align 4
  %14 = getelementptr inbounds %class.ciEnv, ptr %9, i32 0, i32 9
  %15 = load i32, ptr %14, align 4
  %16 = icmp sgt i32 %13, %15
  br i1 %16, label %17, label %36

17:                                               ; preds = %3
  %18 = call noundef ptr @_ZN5ciEnv3logEv(ptr noundef nonnull align 8 dereferenceable(1265) %9)
  %19 = icmp ne ptr %18, null
  br i1 %19, label %20, label %31

20:                                               ; preds = %17
  %21 = load i8, ptr %6, align 1
  %22 = trunc i8 %21 to i1
  br i1 %22, label %23, label %25

23:                                               ; preds = %20
  %24 = call noundef ptr @_ZN5ciEnv3logEv(ptr noundef nonnull align 8 dereferenceable(1265) %9)
  call void (ptr, ptr, ...) @_ZN9xmlStream4elemEPKcz(ptr noundef nonnull align 8 dereferenceable(152) %24, ptr noundef @.str.17)
  br label %30

25:                                               ; preds = %20
  %26 = call noundef ptr @_ZN5ciEnv3logEv(ptr noundef nonnull align 8 dereferenceable(1265) %9)
  %27 = call noundef ptr @_ZN5ciEnv7currentEv()
  %28 = call noundef ptr @_ZNK5ciEnv4taskEv(ptr noundef nonnull align 8 dereferenceable(1265) %27)
  %29 = call noundef i32 @_ZN11CompileTask10comp_levelEv(ptr noundef nonnull align 8 dereferenceable(176) %28)
  call void (ptr, ptr, ...) @_ZN9xmlStream4elemEPKcz(ptr noundef nonnull align 8 dereferenceable(152) %26, ptr noundef @.str.18, i32 noundef %29)
  br label %30

30:                                               ; preds = %25, %23
  br label %31

31:                                               ; preds = %30, %17
  %32 = load i32, ptr %7, align 4
  %33 = getelementptr inbounds %class.ciEnv, ptr %9, i32 0, i32 9
  store i32 %32, ptr %33, align 4
  %34 = getelementptr inbounds %class.ciEnv, ptr %9, i32 0, i32 6
  call void @_ZN17CHeapStringHolder5clearEv(ptr noundef nonnull align 8 dereferenceable(8) %34)
  %35 = load ptr, ptr %5, align 8
  call void @_ZN5ciEnv14record_failureEPKc(ptr noundef nonnull align 8 dereferenceable(1265) %9, ptr noundef %35)
  br label %36

36:                                               ; preds = %31, %3
  ret void
}

; Function Attrs: mustprogress nounwind uwtable
define hidden void @_ZN5ciEnv28record_out_of_memory_failureEv(ptr noundef nonnull align 8 dereferenceable(1265) %0) #1 align 2 {
  %2 = alloca ptr, align 8
  store ptr %0, ptr %2, align 8
  %3 = load ptr, ptr %2, align 8
  call void @_ZN5ciEnv28record_method_not_compilableEPKcb(ptr noundef nonnull align 8 dereferenceable(1265) %3, ptr noundef @.str.19, i1 noundef zeroext false)
  ret void
}