; Function Attrs: mustprogress nounwind uwtable
define hidden void @_ZN5ciEnv28record_out_of_memory_failureEv(ptr noundef nonnull align 8 dereferenceable(1265) %0) local_unnamed_addr #0 align 2 {
  %2 = getelementptr inbounds i8, ptr %0, i64 100
  %3 = load i32, ptr %2, align 4
  %4 = icmp slt i32 %3, 1
  br i1 %4, label %5, label %_ZN5ciEnv28record_method_not_compilableEPKcb.exit

5:                                                ; preds = %1
  %6 = getelementptr inbounds i8, ptr %0, i64 120
  %7 = load ptr, ptr %6, align 8
  %.not.i = icmp eq ptr %7, null
  br i1 %.not.i, label %17, label %8

8:                                                ; preds = %5
  %9 = tail call align 8 ptr @llvm.threadlocal.address.p0(ptr align 8 @_ZN6Thread12_thr_currentE)
  %10 = load ptr, ptr %9, align 8
  %11 = getelementptr inbounds i8, ptr %10, i64 1808
  %12 = load ptr, ptr %11, align 8
  %13 = getelementptr inbounds i8, ptr %12, i64 112
  %14 = load ptr, ptr %13, align 8
  %15 = getelementptr inbounds i8, ptr %14, i64 80
  %16 = load i32, ptr %15, align 8
  tail call void (ptr, ptr, ...) @_ZN9xmlStream4elemEPKcz(ptr noundef nonnull align 8 dereferenceable(152) %7, ptr noundef nonnull @.str.18, i32 noundef %16) #18
  br label %17

17:                                               ; preds = %8, %5
  store i32 1, ptr %2, align 4
  %18 = getelementptr inbounds i8, ptr %0, i64 88
  tail call void @_ZN17CHeapStringHolder5clearEv(ptr noundef nonnull align 8 dereferenceable(8) %18) #18
  %19 = load ptr, ptr %18, align 8
  %20 = icmp eq ptr %19, null
  br i1 %20, label %21, label %_ZN5ciEnv28record_method_not_compilableEPKcb.exit

21:                                               ; preds = %17
  tail call void @_ZN17CHeapStringHolder3setEPKc(ptr noundef nonnull align 8 dereferenceable(8) %18, ptr noundef nonnull @.str.19) #18
  br label %_ZN5ciEnv28record_method_not_compilableEPKcb.exit

_ZN5ciEnv28record_method_not_compilableEPKcb.exit: ; preds = %1, %17, %21
  ret void
}